; Function Attrs: mustprogress uwtable
define dso_local void @_ZNSt3__117__assoc_sub_state4copyEv(ptr noundef nonnull align 8 dereferenceable(116) %0) local_unnamed_addr #1 align 2 personality ptr @__gxx_personality_v0 {
  %2 = alloca %"class.std::__1::unique_lock", align 8
  %3 = alloca %"class.std::exception_ptr", align 8
  %4 = alloca %"class.std::exception_ptr", align 8
  call void @llvm.lifetime.start.p0(i64 16, ptr nonnull %2) #21
  %5 = getelementptr inbounds nuw i8, ptr %0, i64 24
  store ptr %5, ptr %2, align 8, !tbaa !26
  %6 = getelementptr inbounds nuw i8, ptr %2, i64 8
  store i8 1, ptr %6, align 8, !tbaa !30
  tail call void @_ZNSt3__15mutex4lockEv(ptr noundef nonnull align 8 dereferenceable(40) %5)
  %7 = getelementptr inbounds nuw i8, ptr %0, i64 112
  %8 = load i32, ptr %7, align 8, !tbaa !16
  %9 = and i32 %8, 4
  %.not3.i = icmp eq i32 %9, 0
  br i1 %.not3.i, label %10, label %_ZNSt3__117__assoc_sub_state10__sub_waitERNS_11unique_lockINS_5mutexEEE.exit

10:                                               ; preds = %1
  %11 = and i32 %8, 8
  %.not.i = icmp eq i32 %11, 0
  br i1 %.not.i, label %.lr.ph.i, label %_ZNSt3__111unique_lockINS_5mutexEE6unlockB8ne210000Ev.exit.i

.lr.ph.i:                                         ; preds = %10
  %12 = getelementptr inbounds nuw i8, ptr %0, i64 64
  br label %17

_ZNSt3__111unique_lockINS_5mutexEE6unlockB8ne210000Ev.exit.i: ; preds = %10
  %13 = and i32 %8, -13
  store i32 %13, ptr %7, align 8, !tbaa !16
  tail call void @_ZNSt3__15mutex6unlockEv(ptr noundef nonnull align 8 dereferenceable(40) %5) #21
  store i8 0, ptr %6, align 8, !tbaa !30
  %14 = load ptr, ptr %0, align 8, !tbaa !8
  %15 = getelementptr inbounds nuw i8, ptr %14, i64 24
  %16 = load ptr, ptr %15, align 8
  tail call void %16(ptr noundef nonnull align 8 dereferenceable(116) %0)
  br label %_ZNSt3__117__assoc_sub_state10__sub_waitERNS_11unique_lockINS_5mutexEEE.exit

17:                                               ; preds = %17, %.lr.ph.i
  call void @_ZNSt3__118condition_variable4waitERNS_11unique_lockINS_5mutexEEE(ptr noundef nonnull align 8 dereferenceable(48) %12, ptr noundef nonnull align 8 dereferenceable(9) %2) #21
  %18 = load i32, ptr %7, align 8, !tbaa !16
  %19 = and i32 %18, 4
  %.not4.i = icmp eq i32 %19, 0
  br i1 %.not4.i, label %17, label %_ZNSt3__117__assoc_sub_state10__sub_waitERNS_11unique_lockINS_5mutexEEE.exit, !llvm.loop !31

_ZNSt3__117__assoc_sub_state10__sub_waitERNS_11unique_lockINS_5mutexEEE.exit: ; preds = %17, %_ZNSt3__111unique_lockINS_5mutexEE6unlockB8ne210000Ev.exit.i, %1
  %20 = getelementptr inbounds nuw i8, ptr %0, i64 16
  call void @llvm.lifetime.start.p0(i64 8, ptr nonnull %3) #21
  store ptr null, ptr %3, align 8, !tbaa !23
  %21 = load ptr, ptr %20, align 8, !tbaa !23
  %.not = icmp eq ptr %21, null
  call void @_ZNSt13exception_ptrD1Ev(ptr noundef nonnull align 8 dereferenceable(8) %3) #21
  call void @llvm.lifetime.end.p0(i64 8, ptr nonnull %3) #21
  br i1 %.not, label %24, label %22

22:                                               ; preds = %_ZNSt3__117__assoc_sub_state10__sub_waitERNS_11unique_lockINS_5mutexEEE.exit
  call void @_ZNSt13exception_ptrC1ERKS_(ptr noundef nonnull align 8 dereferenceable(8) %4, ptr noundef nonnull align 8 dereferenceable(8) %20) #21
  invoke void @_ZSt17rethrow_exceptionSt13exception_ptr(ptr noundef nonnull %4) #23
          to label %23 unwind label %29

23:                                               ; preds = %22
  unreachable

24:                                               ; preds = %_ZNSt3__117__assoc_sub_state10__sub_waitERNS_11unique_lockINS_5mutexEEE.exit
  %25 = load i8, ptr %6, align 8, !tbaa !30, !range !33, !noundef !34
  %26 = trunc nuw i8 %25 to i1
  br i1 %26, label %27, label %_ZNSt3__111unique_lockINS_5mutexEED2B8ne210000Ev.exit

27:                                               ; preds = %24
  %28 = load ptr, ptr %2, align 8, !tbaa !26
  call void @_ZNSt3__15mutex6unlockEv(ptr noundef nonnull align 8 dereferenceable(40) %28) #21
  br label %_ZNSt3__111unique_lockINS_5mutexEED2B8ne210000Ev.exit

_ZNSt3__111unique_lockINS_5mutexEED2B8ne210000Ev.exit: ; preds = %24, %27
  call void @llvm.lifetime.end.p0(i64 16, ptr nonnull %2) #21
  ret void

29:                                               ; preds = %22
  %30 = landingpad { ptr, i32 }
          cleanup
  call void @_ZNSt13exception_ptrD1Ev(ptr noundef nonnull align 8 dereferenceable(8) %4) #21
  %.pre = load i8, ptr %6, align 8, !tbaa !30, !range !33
  %31 = trunc nuw i8 %.pre to i1
  br i1 %31, label %32, label %_ZNSt3__111unique_lockINS_5mutexEED2B8ne210000Ev.exit5

32:                                               ; preds = %29
  %33 = load ptr, ptr %2, align 8, !tbaa !26
  call void @_ZNSt3__15mutex6unlockEv(ptr noundef nonnull align 8 dereferenceable(40) %33) #21
  br label %_ZNSt3__111unique_lockINS_5mutexEED2B8ne210000Ev.exit5

_ZNSt3__111unique_lockINS_5mutexEED2B8ne210000Ev.exit5: ; preds = %29, %32
  call void @llvm.lifetime.end.p0(i64 16, ptr nonnull %2) #21
  resume { ptr, i32 } %30
}